; Function Attrs: nounwind uwtable
define internal { i64, ptr } @f_halt_error(ptr noundef %0, i64 %1, ptr %2, i64 %3, ptr %4) #0 {
  %6 = alloca [15 x i8], align 1
  %7 = tail call i32 @jv_get_kind(i64 %3, ptr %4) #14
  %.not = icmp eq i32 %7, 4
  br i1 %.not, label %16, label %8

8:                                                ; preds = %5
  tail call void @jv_free(i64 %3, ptr %4) #14
  call void @llvm.lifetime.start.p0(i64 15, ptr nonnull %6) #14
  %9 = tail call i32 @jv_get_kind(i64 %1, ptr %2) #14
  %10 = tail call ptr @jv_kind_name(i32 noundef %9) #14
  %11 = call ptr @jv_dump_string_trunc(i64 %1, ptr %2, ptr noundef nonnull %6, i64 noundef 15) #14
  %12 = call { i64, ptr } (ptr, ...) @jv_string_fmt(ptr noundef nonnull @.str.155, ptr noundef %10, ptr noundef %11, ptr noundef nonnull @.str.207) #14
  %13 = extractvalue { i64, ptr } %12, 0
  %14 = extractvalue { i64, ptr } %12, 1
  %15 = call { i64, ptr } @jv_invalid_with_msg(i64 %13, ptr %14) #14
  call void @llvm.lifetime.end.p0(i64 15, ptr nonnull %6) #14
  br label %18

16:                                               ; preds = %5
  tail call void @jq_halt(ptr noundef %0, i64 %3, ptr %4, i64 %1, ptr %2) #14
  %17 = tail call { i64, ptr } @jv_true() #14
  br label %18

18:                                               ; preds = %16, %8
  %.pn = phi { i64, ptr } [ %15, %8 ], [ %17, %16 ]
  ret { i64, ptr } %.pn
}